target datalayout = "e-m:e-p270:32:32-p271:32:32-p272:64:64-i64:64-i128:128-f80:128-n8:16:32:64-S128"
target triple = "x86_64-pc-linux-gnu"

%struct.tMPI_Thread_key_t = type { %struct.tMPI_Atomic, ptr }
%struct.tMPI_Atomic = type { i32, [60 x i8] }
%struct.tmpi_comm_ = type { %struct.tmpi_group_, %struct.tMPI_Barrier_t, ptr, ptr, i32, ptr, ptr, ptr, ptr, %struct.tMPI_Thread_mutex_t, %struct.tMPI_Thread_cond_t, %struct.tMPI_Thread_cond_t, ptr, ptr, ptr, ptr, ptr, ptr, %struct.tMPI_Atomic }
%struct.tmpi_group_ = type { i32, ptr }
%struct.tMPI_Barrier_t = type { %struct.tMPI_Atomic, i32, %struct.tMPI_Atomic }
%struct.tMPI_Thread_mutex_t = type { %struct.tMPI_Atomic, ptr }
%struct.tMPI_Thread_cond_t = type { %struct.tMPI_Atomic, ptr }

@id_key = external global %struct.tMPI_Thread_key_t, align 8

; Function Attrs: mustprogress nounwind uwtable
define noundef i32 @_Z19tMPI_Comm_seek_rankP10tmpi_comm_P11tmpi_thread(ptr noundef %0, ptr noundef %1) #0 {
  %3 = alloca i32, align 4
  %4 = alloca ptr, align 8
  %5 = alloca ptr, align 8
  %6 = alloca i32, align 4
  %7 = alloca i32, align 4
  store ptr %0, ptr %4, align 8, !tbaa !3
  store ptr %1, ptr %5, align 8, !tbaa !32
  call void @llvm.lifetime.start.p0(i64 4, ptr %6) #8
  %8 = load ptr, ptr %4, align 8, !tbaa !3
  %9 = icmp ne ptr %8, null
  br i1 %9, label %11, label %10

10:                                               ; preds = %2
  store i32 -1, ptr %3, align 4
  store i32 1, ptr %7, align 4
  br label %37

11:                                               ; preds = %2
  store i32 0, ptr %6, align 4, !tbaa !30
  br label %12

12:                                               ; preds = %33, %11
  %13 = load i32, ptr %6, align 4, !tbaa !30
  %14 = load ptr, ptr %4, align 8, !tbaa !3
  %15 = getelementptr inbounds nuw %struct.tmpi_comm_, ptr %14, i32 0, i32 0
  %16 = getelementptr inbounds nuw %struct.tmpi_group_, ptr %15, i32 0, i32 0
  %17 = load i32, ptr %16, align 8, !tbaa !8
  %18 = icmp slt i32 %13, %17
  br i1 %18, label %19, label %36

19:                                               ; preds = %12
  %20 = load ptr, ptr %4, align 8, !tbaa !3
  %21 = getelementptr inbounds nuw %struct.tmpi_comm_, ptr %20, i32 0, i32 0
  %22 = getelementptr inbounds nuw %struct.tmpi_group_, ptr %21, i32 0, i32 1
  %23 = load ptr, ptr %22, align 8, !tbaa !31
  %24 = load i32, ptr %6, align 4, !tbaa !30
  %25 = sext i32 %24 to i64
  %26 = getelementptr inbounds ptr, ptr %23, i64 %25
  %27 = load ptr, ptr %26, align 8, !tbaa !32
  %28 = load ptr, ptr %5, align 8, !tbaa !32
  %29 = icmp eq ptr %27, %28
  br i1 %29, label %30, label %32

30:                                               ; preds = %19
  %31 = load i32, ptr %6, align 4, !tbaa !30
  store i32 %31, ptr %3, align 4
  store i32 1, ptr %7, align 4
  br label %37

32:                                               ; preds = %19
  br label %33

33:                                               ; preds = %32
  %34 = load i32, ptr %6, align 4, !tbaa !30
  %35 = add nsw i32 %34, 1
  store i32 %35, ptr %6, align 4, !tbaa !30
  br label %12, !llvm.loop !85

36:                                               ; preds = %12
  store i32 -1, ptr %3, align 4
  store i32 1, ptr %7, align 4
  br label %37

37:                                               ; preds = %36, %30, %10
  call void @llvm.lifetime.end.p0(i64 4, ptr %6) #8
  %38 = load i32, ptr %3, align 4
  ret i32 %38
}

; Function Attrs: mustprogress uwtable
define noundef i32 @_Z13tMPI_Comm_dupP10tmpi_comm_PS0_(ptr noundef %0, ptr noundef %1) #1 {
  %3 = alloca ptr, align 8
  %4 = alloca ptr, align 8
  %5 = alloca %struct.tMPI_Thread_key_t, align 8
  store ptr %0, ptr %3, align 8, !tbaa !3
  store ptr %1, ptr %4, align 8, !tbaa !37
  %6 = load ptr, ptr %3, align 8, !tbaa !3
  %7 = load ptr, ptr %3, align 8, !tbaa !3
  call void @llvm.memcpy.p0.p0.i64(ptr align 8 %5, ptr align 8 @id_key, i64 72, i1 false), !tbaa.struct !67
  %8 = call noundef ptr @_Z23tMPI_Thread_getspecific17tMPI_Thread_key_t(ptr noundef byval(%struct.tMPI_Thread_key_t) align 8 %5)
  %9 = call noundef i32 @_Z19tMPI_Comm_seek_rankP10tmpi_comm_P11tmpi_thread(ptr noundef %7, ptr noundef %8)
  %10 = load ptr, ptr %4, align 8, !tbaa !37
  %11 = call noundef i32 @_Z15tMPI_Comm_splitP10tmpi_comm_iiPS0_(ptr noundef %6, i32 noundef 0, i32 noundef %9, ptr noundef %10)
  ret i32 %11
}