; Function Attrs: mustprogress uwtable
define noundef i32 @_Z13tMPI_Comm_dupP10tmpi_comm_PS0_(ptr noundef %0, ptr noundef writeonly captures(none) %1) local_unnamed_addr #1 {
  %3 = tail call noundef ptr @_Z23tMPI_Thread_getspecific17tMPI_Thread_key_t(ptr noundef nonnull byval(%struct.tMPI_Thread_key_t) align 8 @id_key)
  %.not.i = icmp eq ptr %0, null
  br i1 %.not.i, label %_Z19tMPI_Comm_seek_rankP10tmpi_comm_P11tmpi_thread.exit, label %.preheader.i

.preheader.i:                                     ; preds = %2
  %4 = load i32, ptr %0, align 8, !tbaa !3
  %5 = icmp sgt i32 %4, 0
  br i1 %5, label %.lr.ph.i, label %_Z19tMPI_Comm_seek_rankP10tmpi_comm_P11tmpi_thread.exit

.lr.ph.i:                                         ; preds = %.preheader.i
  %6 = getelementptr inbounds nuw i8, ptr %0, i64 8
  %7 = load ptr, ptr %6, align 8, !tbaa !29
  %wide.trip.count.i = zext nneg i32 %4 to i64
  br label %8

8:                                                ; preds = %12, %.lr.ph.i
  %indvars.iv.i = phi i64 [ 0, %.lr.ph.i ], [ %indvars.iv.next.i, %12 ]
  %9 = getelementptr inbounds nuw ptr, ptr %7, i64 %indvars.iv.i
  %10 = load ptr, ptr %9, align 8, !tbaa !30
  %11 = icmp eq ptr %10, %3
  br i1 %11, label %.loopexit.loopexit.split.loop.exit14.i, label %12

12:                                               ; preds = %8
  %indvars.iv.next.i = add nuw nsw i64 %indvars.iv.i, 1
  %exitcond.not.i = icmp eq i64 %indvars.iv.next.i, %wide.trip.count.i
  br i1 %exitcond.not.i, label %_Z19tMPI_Comm_seek_rankP10tmpi_comm_P11tmpi_thread.exit, label %8, !llvm.loop !60

.loopexit.loopexit.split.loop.exit14.i:           ; preds = %8
  %13 = trunc nuw nsw i64 %indvars.iv.i to i32
  br label %_Z19tMPI_Comm_seek_rankP10tmpi_comm_P11tmpi_thread.exit

_Z19tMPI_Comm_seek_rankP10tmpi_comm_P11tmpi_thread.exit: ; preds = %12, %2, %.preheader.i, %.loopexit.loopexit.split.loop.exit14.i
  %.08.i = phi i32 [ -1, %2 ], [ -1, %.preheader.i ], [ %13, %.loopexit.loopexit.split.loop.exit14.i ], [ -1, %12 ]
  %14 = tail call noundef i32 @_Z15tMPI_Comm_splitP10tmpi_comm_iiPS0_(ptr noundef %0, i32 noundef 0, i32 noundef %.08.i, ptr noundef %1)
  ret i32 %14
}